target datalayout = "e-m:e-p270:32:32-p271:32:32-p272:64:64-i64:64-i128:128-f80:128-n8:16:32:64-S128"
target triple = "x86_64-pc-linux-gnu"

%"class.cv::_InputArray" = type { i32, ptr, %"class.cv::Size_" }
%"class.cv::Size_" = type { i32, i32 }
%"class.cv::Mat" = type { i32, i32, i32, i32, ptr, ptr, ptr, ptr, ptr, ptr, %"struct.cv::MatSize", %"struct.cv::MatStep" }
%"struct.cv::MatSize" = type { ptr }
%"struct.cv::MatStep" = type { ptr, [2 x i64] }

; Function Attrs: inlinehint mustprogress nounwind uwtable
define linkonce_odr hidden void @_ZN2cv5Size_IiEC2Eii(ptr noundef nonnull align 4 dereferenceable(8) %0, i32 noundef %1, i32 noundef %2) unnamed_addr #6 comdat align 2 {
  %4 = alloca ptr, align 8
  %5 = alloca i32, align 4
  %6 = alloca i32, align 4
  store ptr %0, ptr %4, align 8, !tbaa !16
  store i32 %1, ptr %5, align 4, !tbaa !8
  store i32 %2, ptr %6, align 4, !tbaa !8
  %7 = load ptr, ptr %4, align 8
  %8 = getelementptr inbounds nuw %"class.cv::Size_", ptr %7, i32 0, i32 0
  %9 = load i32, ptr %5, align 4, !tbaa !8
  store i32 %9, ptr %8, align 4, !tbaa !18
  %10 = getelementptr inbounds nuw %"class.cv::Size_", ptr %7, i32 0, i32 1
  %11 = load i32, ptr %6, align 4, !tbaa !8
  store i32 %11, ptr %10, align 4, !tbaa !20
  ret void
}

; Function Attrs: inlinehint mustprogress nounwind uwtable
define linkonce_odr noundef float @_ZSt4sqrtf(float noundef %0) #6 comdat {
  %2 = alloca float, align 4
  store float %0, ptr %2, align 4, !tbaa !10
  %3 = load float, ptr %2, align 4, !tbaa !10
  %4 = call float @sqrtf(float noundef %3) #3, !tbaa !8
  ret float %4
}

; Function Attrs: inlinehint mustprogress nounwind uwtable
define linkonce_odr hidden noundef ptr @_ZN2cv3Mat3ptrIfEEPT_i(ptr noundef nonnull align 8 dereferenceable(96) %0, i32 noundef %1) #6 comdat align 2 {
  %3 = alloca ptr, align 8
  %4 = alloca i32, align 4
  store ptr %0, ptr %3, align 8, !tbaa !3
  store i32 %1, ptr %4, align 4, !tbaa !8
  %5 = load ptr, ptr %3, align 8
  %6 = getelementptr inbounds nuw %"class.cv::Mat", ptr %5, i32 0, i32 4
  %7 = load ptr, ptr %6, align 8, !tbaa !33
  %8 = getelementptr inbounds nuw %"class.cv::Mat", ptr %5, i32 0, i32 11
  %9 = getelementptr inbounds nuw %"struct.cv::MatStep", ptr %8, i32 0, i32 0
  %10 = load ptr, ptr %9, align 8, !tbaa !40
  %11 = getelementptr inbounds i64, ptr %10, i64 0
  %12 = load i64, ptr %11, align 8, !tbaa !41
  %13 = load i32, ptr %4, align 4, !tbaa !8
  %14 = sext i32 %13 to i64
  %15 = mul i64 %12, %14
  %16 = getelementptr inbounds nuw i8, ptr %7, i64 %15
  ret ptr %16
}

; Function Attrs: inlinehint mustprogress uwtable
define linkonce_odr hidden i64 @_ZNK2cv7MatSizeclEv(ptr noundef nonnull align 8 dereferenceable(8) %0) #7 comdat align 2 {
  %2 = alloca %"class.cv::Size_", align 4
  %3 = alloca ptr, align 8
  store ptr %0, ptr %3, align 8, !tbaa !28
  %4 = load ptr, ptr %3, align 8
  %5 = getelementptr inbounds nuw %"struct.cv::MatSize", ptr %4, i32 0, i32 0
  %6 = load ptr, ptr %5, align 8, !tbaa !30
  %7 = getelementptr inbounds i32, ptr %6, i64 1
  %8 = load i32, ptr %7, align 4, !tbaa !8
  %9 = getelementptr inbounds nuw %"struct.cv::MatSize", ptr %4, i32 0, i32 0
  %10 = load ptr, ptr %9, align 8, !tbaa !30
  %11 = getelementptr inbounds i32, ptr %10, i64 0
  %12 = load i32, ptr %11, align 4, !tbaa !8
  call void @_ZN2cv5Size_IiEC2Eii(ptr noundef nonnull align 4 dereferenceable(8) %2, i32 noundef %8, i32 noundef %12)
  %13 = load i64, ptr %2, align 4
  ret i64 %13
}

; Function Attrs: inlinehint mustprogress uwtable
define linkonce_odr hidden void @_ZNK2cv11_InputArray6getMatEi(ptr dead_on_unwind noalias writable sret(%"class.cv::Mat") align 8 %0, ptr noundef nonnull align 8 dereferenceable(24) %1, i32 noundef %2) #7 comdat align 2 {
  %4 = alloca ptr, align 8
  %5 = alloca ptr, align 8
  %6 = alloca i32, align 4
  store ptr %0, ptr %4, align 8
  store ptr %1, ptr %5, align 8, !tbaa !12
  store i32 %2, ptr %6, align 4, !tbaa !8
  %7 = load ptr, ptr %5, align 8
  %8 = call noundef i32 @_ZNK2cv11_InputArray4kindEv(ptr noundef nonnull align 8 dereferenceable(24) %7)
  %9 = icmp eq i32 %8, 65536
  br i1 %9, label %10, label %16

10:                                               ; preds = %3
  %11 = load i32, ptr %6, align 4, !tbaa !8
  %12 = icmp slt i32 %11, 0
  br i1 %12, label %13, label %16

13:                                               ; preds = %10
  %14 = getelementptr inbounds nuw %"class.cv::_InputArray", ptr %7, i32 0, i32 1
  %15 = load ptr, ptr %14, align 8, !tbaa !26
  call void @_ZN2cv3MatC1ERKS0_(ptr noundef nonnull align 8 dereferenceable(96) %0, ptr noundef nonnull align 8 dereferenceable(96) %15)
  br label %18

16:                                               ; preds = %10, %3
  %17 = load i32, ptr %6, align 4, !tbaa !8
  call void @_ZNK2cv11_InputArray7getMat_Ei(ptr dead_on_unwind writable sret(%"class.cv::Mat") align 8 %0, ptr noundef nonnull align 8 dereferenceable(24) %7, i32 noundef %17)
  br label %18

18:                                               ; preds = %16, %13
  ret void
}

; Function Attrs: mustprogress uwtable
define hidden void @_ZN2cv23charbonnier_diffusivityERKNS_11_InputArrayES2_RKNS_12_OutputArrayEf(ptr noundef nonnull align 8 dereferenceable(24) %0, ptr noundef nonnull align 8 dereferenceable(24) %1, ptr noundef nonnull align 8 dereferenceable(24) %2, float noundef %3) #4 personality ptr @__gxx_personality_v0 {
  %5 = alloca ptr, align 8
  %6 = alloca ptr, align 8
  %7 = alloca ptr, align 8
  %8 = alloca float, align 4
  %9 = alloca %"class.cv::Size_", align 4
  %10 = alloca %"class.cv::Mat", align 8
  %11 = alloca %"class.cv::Mat", align 8
  %12 = alloca ptr, align 8
  %13 = alloca i32, align 4
  %14 = alloca %"class.cv::Mat", align 8
  %15 = alloca %"class.cv::Size_", align 4
  %16 = alloca float, align 4
  %17 = alloca i32, align 4
  %18 = alloca i32, align 4
  %19 = alloca ptr, align 8
  %20 = alloca ptr, align 8
  %21 = alloca ptr, align 8
  %22 = alloca i32, align 4
  %23 = alloca float, align 4
  store ptr %0, ptr %5, align 8, !tbaa !12
  store ptr %1, ptr %6, align 8, !tbaa !12
  store ptr %2, ptr %7, align 8, !tbaa !14
  store float %3, ptr %8, align 4, !tbaa !10
  %24 = load ptr, ptr %7, align 8, !tbaa !14
  %25 = load ptr, ptr %5, align 8, !tbaa !12
  %26 = call i64 @_ZNK2cv11_InputArray4sizeEi(ptr noundef nonnull align 8 dereferenceable(24) %25, i32 noundef -1)
  store i64 %26, ptr %9, align 4
  %27 = load ptr, ptr %5, align 8, !tbaa !12
  %28 = call noundef i32 @_ZNK2cv11_InputArray4typeEi(ptr noundef nonnull align 8 dereferenceable(24) %27, i32 noundef -1)
  %29 = load i64, ptr %9, align 4
  call void @_ZNK2cv12_OutputArray6createENS_5Size_IiEEiibNS0_9DepthMaskE(ptr noundef nonnull align 8 dereferenceable(24) %24, i64 %29, i32 noundef %28, i32 noundef -1, i1 noundef zeroext false, i32 noundef 0)
  call void @llvm.lifetime.start.p0(i64 96, ptr %10) #3
  %30 = load ptr, ptr %5, align 8, !tbaa !12
  call void @_ZNK2cv11_InputArray6getMatEi(ptr dead_on_unwind writable sret(%"class.cv::Mat") align 8 %10, ptr noundef nonnull align 8 dereferenceable(24) %30, i32 noundef -1)
  call void @llvm.lifetime.start.p0(i64 96, ptr %11) #3
  %31 = load ptr, ptr %6, align 8, !tbaa !12
  invoke void @_ZNK2cv11_InputArray6getMatEi(ptr dead_on_unwind writable sret(%"class.cv::Mat") align 8 %11, ptr noundef nonnull align 8 dereferenceable(24) %31, i32 noundef -1)
          to label %32 unwind label %48

32:                                               ; preds = %4
  call void @llvm.lifetime.start.p0(i64 96, ptr %14) #3
  %33 = load ptr, ptr %7, align 8, !tbaa !14
  invoke void @_ZNK2cv11_InputArray6getMatEi(ptr dead_on_unwind writable sret(%"class.cv::Mat") align 8 %14, ptr noundef nonnull align 8 dereferenceable(24) %33, i32 noundef -1)
          to label %34 unwind label %52

34:                                               ; preds = %32
  call void @llvm.lifetime.start.p0(i64 8, ptr %15) #3
  %35 = getelementptr inbounds nuw %"class.cv::Mat", ptr %10, i32 0, i32 10
  %36 = invoke i64 @_ZNK2cv7MatSizeclEv(ptr noundef nonnull align 8 dereferenceable(8) %35)
          to label %37 unwind label %56

37:                                               ; preds = %34
  store i64 %36, ptr %15, align 4
  call void @llvm.lifetime.start.p0(i64 4, ptr %16) #3
  %38 = load float, ptr %8, align 4, !tbaa !10
  %39 = load float, ptr %8, align 4, !tbaa !10
  %40 = fmul float %38, %39
  %41 = fdiv float 1.000000e+00, %40
  store float %41, ptr %16, align 4, !tbaa !10
  call void @llvm.lifetime.start.p0(i64 4, ptr %17) #3
  store i32 0, ptr %17, align 4, !tbaa !8
  br label %42

42:                                               ; preds = %129, %37
  %43 = load i32, ptr %17, align 4, !tbaa !8
  %44 = getelementptr inbounds nuw %"class.cv::Size_", ptr %15, i32 0, i32 1
  %45 = load i32, ptr %44, align 4, !tbaa !20
  %46 = icmp slt i32 %43, %45
  br i1 %46, label %60, label %47

47:                                               ; preds = %42
  store i32 2, ptr %18, align 4
  call void @llvm.lifetime.end.p0(i64 4, ptr %17) #3
  br label %135

48:                                               ; preds = %4
  %49 = landingpad { ptr, i32 }
          cleanup
  %50 = extractvalue { ptr, i32 } %49, 0
  store ptr %50, ptr %12, align 8
  %51 = extractvalue { ptr, i32 } %49, 1
  store i32 %51, ptr %13, align 4
  br label %138

52:                                               ; preds = %32
  %53 = landingpad { ptr, i32 }
          cleanup
  %54 = extractvalue { ptr, i32 } %53, 0
  store ptr %54, ptr %12, align 8
  %55 = extractvalue { ptr, i32 } %53, 1
  store i32 %55, ptr %13, align 4
  br label %137

56:                                               ; preds = %34
  %57 = landingpad { ptr, i32 }
          cleanup
  %58 = extractvalue { ptr, i32 } %57, 0
  store ptr %58, ptr %12, align 8
  %59 = extractvalue { ptr, i32 } %57, 1
  store i32 %59, ptr %13, align 4
  br label %136

60:                                               ; preds = %42
  call void @llvm.lifetime.start.p0(i64 8, ptr %19) #3
  %61 = load i32, ptr %17, align 4, !tbaa !8
  %62 = invoke noundef ptr @_ZN2cv3Mat3ptrIfEEPT_i(ptr noundef nonnull align 8 dereferenceable(96) %10, i32 noundef %61)
          to label %63 unwind label %76

63:                                               ; preds = %60
  store ptr %62, ptr %19, align 8, !tbaa !21
  call void @llvm.lifetime.start.p0(i64 8, ptr %20) #3
  %64 = load i32, ptr %17, align 4, !tbaa !8
  %65 = invoke noundef ptr @_ZN2cv3Mat3ptrIfEEPT_i(ptr noundef nonnull align 8 dereferenceable(96) %11, i32 noundef %64)
          to label %66 unwind label %80

66:                                               ; preds = %63
  store ptr %65, ptr %20, align 8, !tbaa !21
  call void @llvm.lifetime.start.p0(i64 8, ptr %21) #3
  %67 = load i32, ptr %17, align 4, !tbaa !8
  %68 = invoke noundef ptr @_ZN2cv3Mat3ptrIfEEPT_i(ptr noundef nonnull align 8 dereferenceable(96) %14, i32 noundef %67)
          to label %69 unwind label %84

69:                                               ; preds = %66
  store ptr %68, ptr %21, align 8, !tbaa !21
  call void @llvm.lifetime.start.p0(i64 4, ptr %22) #3
  store i32 0, ptr %22, align 4, !tbaa !8
  br label %70

70:                                               ; preds = %121, %69
  %71 = load i32, ptr %22, align 4, !tbaa !8
  %72 = getelementptr inbounds nuw %"class.cv::Size_", ptr %15, i32 0, i32 0
  %73 = load i32, ptr %72, align 4, !tbaa !18
  %74 = icmp slt i32 %71, %73
  br i1 %74, label %88, label %75

75:                                               ; preds = %70
  store i32 5, ptr %18, align 4
  call void @llvm.lifetime.end.p0(i64 4, ptr %22) #3
  br label %128

76:                                               ; preds = %60
  %77 = landingpad { ptr, i32 }
          cleanup
  %78 = extractvalue { ptr, i32 } %77, 0
  store ptr %78, ptr %12, align 8
  %79 = extractvalue { ptr, i32 } %77, 1
  store i32 %79, ptr %13, align 4
  br label %134

80:                                               ; preds = %63
  %81 = landingpad { ptr, i32 }
          cleanup
  %82 = extractvalue { ptr, i32 } %81, 0
  store ptr %82, ptr %12, align 8
  %83 = extractvalue { ptr, i32 } %81, 1
  store i32 %83, ptr %13, align 4
  br label %133

84:                                               ; preds = %66
  %85 = landingpad { ptr, i32 }
          cleanup
  %86 = extractvalue { ptr, i32 } %85, 0
  store ptr %86, ptr %12, align 8
  %87 = extractvalue { ptr, i32 } %85, 1
  store i32 %87, ptr %13, align 4
  br label %132

88:                                               ; preds = %70
  call void @llvm.lifetime.start.p0(i64 4, ptr %23) #3
  %89 = load float, ptr %16, align 4, !tbaa !10
  %90 = load ptr, ptr %19, align 8, !tbaa !21
  %91 = load i32, ptr %22, align 4, !tbaa !8
  %92 = sext i32 %91 to i64
  %93 = getelementptr inbounds float, ptr %90, i64 %92
  %94 = load float, ptr %93, align 4, !tbaa !10
  %95 = load ptr, ptr %19, align 8, !tbaa !21
  %96 = load i32, ptr %22, align 4, !tbaa !8
  %97 = sext i32 %96 to i64
  %98 = getelementptr inbounds float, ptr %95, i64 %97
  %99 = load float, ptr %98, align 4, !tbaa !10
  %100 = load ptr, ptr %20, align 8, !tbaa !21
  %101 = load i32, ptr %22, align 4, !tbaa !8
  %102 = sext i32 %101 to i64
  %103 = getelementptr inbounds float, ptr %100, i64 %102
  %104 = load float, ptr %103, align 4, !tbaa !10
  %105 = load ptr, ptr %20, align 8, !tbaa !21
  %106 = load i32, ptr %22, align 4, !tbaa !8
  %107 = sext i32 %106 to i64
  %108 = getelementptr inbounds float, ptr %105, i64 %107
  %109 = load float, ptr %108, align 4, !tbaa !10
  %110 = fmul float %104, %109
  %111 = call float @llvm.fmuladd.f32(float %94, float %99, float %110)
  %112 = call float @llvm.fmuladd.f32(float %89, float %111, float 1.000000e+00)
  %113 = invoke noundef float @_ZSt4sqrtf(float noundef %112)
          to label %114 unwind label %124

114:                                              ; preds = %88
  store float %113, ptr %23, align 4, !tbaa !10
  %115 = load float, ptr %23, align 4, !tbaa !10
  %116 = fdiv float 1.000000e+00, %115
  %117 = load ptr, ptr %21, align 8, !tbaa !21
  %118 = load i32, ptr %22, align 4, !tbaa !8
  %119 = sext i32 %118 to i64
  %120 = getelementptr inbounds float, ptr %117, i64 %119
  store float %116, ptr %120, align 4, !tbaa !10
  call void @llvm.lifetime.end.p0(i64 4, ptr %23) #3
  br label %121

121:                                              ; preds = %114
  %122 = load i32, ptr %22, align 4, !tbaa !8
  %123 = add nsw i32 %122, 1
  store i32 %123, ptr %22, align 4, !tbaa !8
  br label %70, !llvm.loop !68

124:                                              ; preds = %88
  %125 = landingpad { ptr, i32 }
          cleanup
  %126 = extractvalue { ptr, i32 } %125, 0
  store ptr %126, ptr %12, align 8
  %127 = extractvalue { ptr, i32 } %125, 1
  store i32 %127, ptr %13, align 4
  call void @llvm.lifetime.end.p0(i64 4, ptr %23) #3
  call void @llvm.lifetime.end.p0(i64 4, ptr %22) #3
  br label %132

128:                                              ; preds = %75
  call void @llvm.lifetime.end.p0(i64 8, ptr %21) #3
  call void @llvm.lifetime.end.p0(i64 8, ptr %20) #3
  call void @llvm.lifetime.end.p0(i64 8, ptr %19) #3
  br label %129

129:                                              ; preds = %128
  %130 = load i32, ptr %17, align 4, !tbaa !8
  %131 = add nsw i32 %130, 1
  store i32 %131, ptr %17, align 4, !tbaa !8
  br label %42, !llvm.loop !69

132:                                              ; preds = %124, %84
  call void @llvm.lifetime.end.p0(i64 8, ptr %21) #3
  br label %133

133:                                              ; preds = %132, %80
  call void @llvm.lifetime.end.p0(i64 8, ptr %20) #3
  br label %134

134:                                              ; preds = %133, %76
  call void @llvm.lifetime.end.p0(i64 8, ptr %19) #3
  call void @llvm.lifetime.end.p0(i64 4, ptr %17) #3
  call void @llvm.lifetime.end.p0(i64 4, ptr %16) #3
  br label %136

135:                                              ; preds = %47
  call void @llvm.lifetime.end.p0(i64 4, ptr %16) #3
  call void @llvm.lifetime.end.p0(i64 8, ptr %15) #3
  call void @_ZN2cv3MatD1Ev(ptr noundef nonnull align 8 dereferenceable(96) %14) #3
  call void @llvm.lifetime.end.p0(i64 96, ptr %14) #3
  call void @_ZN2cv3MatD1Ev(ptr noundef nonnull align 8 dereferenceable(96) %11) #3
  call void @llvm.lifetime.end.p0(i64 96, ptr %11) #3
  call void @_ZN2cv3MatD1Ev(ptr noundef nonnull align 8 dereferenceable(96) %10) #3
  call void @llvm.lifetime.end.p0(i64 96, ptr %10) #3
  ret void

136:                                              ; preds = %134, %56
  call void @llvm.lifetime.end.p0(i64 8, ptr %15) #3
  call void @_ZN2cv3MatD1Ev(ptr noundef nonnull align 8 dereferenceable(96) %14) #3
  br label %137

137:                                              ; preds = %136, %52
  call void @llvm.lifetime.end.p0(i64 96, ptr %14) #3
  call void @_ZN2cv3MatD1Ev(ptr noundef nonnull align 8 dereferenceable(96) %11) #3
  br label %138

138:                                              ; preds = %137, %48
  call void @llvm.lifetime.end.p0(i64 96, ptr %11) #3
  call void @_ZN2cv3MatD1Ev(ptr noundef nonnull align 8 dereferenceable(96) %10) #3
  call void @llvm.lifetime.end.p0(i64 96, ptr %10) #3
  br label %139

139:                                              ; preds = %138
  %140 = load ptr, ptr %12, align 8
  %141 = load i32, ptr %13, align 4
  %142 = insertvalue { ptr, i32 } poison, ptr %140, 0
  %143 = insertvalue { ptr, i32 } %142, i32 %141, 1
  resume { ptr, i32 } %143
}