; Function Attrs: mustprogress uwtable
define hidden void @_ZN2cv23charbonnier_diffusivityERKNS_11_InputArrayES2_RKNS_12_OutputArrayEf(ptr noundef nonnull align 8 dereferenceable(24) %0, ptr noundef nonnull align 8 dereferenceable(24) %1, ptr noundef nonnull align 8 dereferenceable(24) %2, float noundef %3) local_unnamed_addr #3 personality ptr @__gxx_personality_v0 {
  %5 = alloca %"class.cv::Mat", align 8
  %6 = alloca %"class.cv::Mat", align 8
  %7 = alloca %"class.cv::Mat", align 8
  %8 = tail call i64 @_ZNK2cv11_InputArray4sizeEi(ptr noundef nonnull align 8 dereferenceable(24) %0, i32 noundef -1)
  %9 = tail call noundef i32 @_ZNK2cv11_InputArray4typeEi(ptr noundef nonnull align 8 dereferenceable(24) %0, i32 noundef -1)
  tail call void @_ZNK2cv12_OutputArray6createENS_5Size_IiEEiibNS0_9DepthMaskE(ptr noundef nonnull align 8 dereferenceable(24) %2, i64 %8, i32 noundef %9, i32 noundef -1, i1 noundef zeroext false, i32 noundef 0)
  call void @llvm.lifetime.start.p0(i64 96, ptr nonnull %5) #19
  %10 = tail call noundef i32 @_ZNK2cv11_InputArray4kindEv(ptr noundef nonnull align 8 dereferenceable(24) %0), !noalias !77
  %11 = icmp eq i32 %10, 65536
  br i1 %11, label %12, label %15

12:                                               ; preds = %4
  %13 = getelementptr inbounds nuw i8, ptr %0, i64 8
  %14 = load ptr, ptr %13, align 8, !tbaa !12, !noalias !77
  call void @_ZN2cv3MatC1ERKS0_(ptr noundef nonnull align 8 dereferenceable(96) %5, ptr noundef nonnull align 8 dereferenceable(96) %14)
  br label %_ZNK2cv11_InputArray6getMatEi.exit

15:                                               ; preds = %4
  call void @_ZNK2cv11_InputArray7getMat_Ei(ptr dead_on_unwind nonnull writable sret(%"class.cv::Mat") align 8 %5, ptr noundef nonnull align 8 dereferenceable(24) %0, i32 noundef -1)
  br label %_ZNK2cv11_InputArray6getMatEi.exit

_ZNK2cv11_InputArray6getMatEi.exit:               ; preds = %12, %15
  call void @llvm.lifetime.start.p0(i64 96, ptr nonnull %6) #19
  %16 = invoke noundef i32 @_ZNK2cv11_InputArray4kindEv(ptr noundef nonnull align 8 dereferenceable(24) %1)
          to label %.noexc unwind label %70

.noexc:                                           ; preds = %_ZNK2cv11_InputArray6getMatEi.exit
  %17 = icmp eq i32 %16, 65536
  br i1 %17, label %18, label %21

18:                                               ; preds = %.noexc
  %19 = getelementptr inbounds nuw i8, ptr %1, i64 8
  %20 = load ptr, ptr %19, align 8, !tbaa !12, !noalias !80
  invoke void @_ZN2cv3MatC1ERKS0_(ptr noundef nonnull align 8 dereferenceable(96) %6, ptr noundef nonnull align 8 dereferenceable(96) %20)
          to label %_ZNK2cv11_InputArray6getMatEi.exit37 unwind label %70

21:                                               ; preds = %.noexc
  invoke void @_ZNK2cv11_InputArray7getMat_Ei(ptr dead_on_unwind nonnull writable sret(%"class.cv::Mat") align 8 %6, ptr noundef nonnull align 8 dereferenceable(24) %1, i32 noundef -1)
          to label %_ZNK2cv11_InputArray6getMatEi.exit37 unwind label %70

_ZNK2cv11_InputArray6getMatEi.exit37:             ; preds = %18, %21
  call void @llvm.lifetime.start.p0(i64 96, ptr nonnull %7) #19
  %22 = invoke noundef i32 @_ZNK2cv11_InputArray4kindEv(ptr noundef nonnull align 8 dereferenceable(24) %2)
          to label %.noexc38 unwind label %72

.noexc38:                                         ; preds = %_ZNK2cv11_InputArray6getMatEi.exit37
  %23 = icmp eq i32 %22, 65536
  br i1 %23, label %24, label %27

24:                                               ; preds = %.noexc38
  %25 = getelementptr inbounds nuw i8, ptr %2, i64 8
  %26 = load ptr, ptr %25, align 8, !tbaa !12, !noalias !83
  invoke void @_ZN2cv3MatC1ERKS0_(ptr noundef nonnull align 8 dereferenceable(96) %7, ptr noundef nonnull align 8 dereferenceable(96) %26)
          to label %28 unwind label %72

27:                                               ; preds = %.noexc38
  invoke void @_ZNK2cv11_InputArray7getMat_Ei(ptr dead_on_unwind nonnull writable sret(%"class.cv::Mat") align 8 %7, ptr noundef nonnull align 8 dereferenceable(24) %2, i32 noundef -1)
          to label %28 unwind label %72

28:                                               ; preds = %27, %24
  %29 = getelementptr inbounds nuw i8, ptr %5, i64 64
  %30 = load ptr, ptr %29, align 8, !tbaa !22
  %31 = getelementptr inbounds nuw i8, ptr %30, i64 4
  %32 = load i32, ptr %31, align 4, !tbaa !25
  %33 = load i32, ptr %30, align 4, !tbaa !25
  %34 = fmul float %3, %3
  %35 = fdiv float 1.000000e+00, %34
  %36 = icmp sgt i32 %33, 0
  br i1 %36, label %.lr.ph45, label %._crit_edge46

.lr.ph45:                                         ; preds = %28
  %37 = getelementptr inbounds nuw i8, ptr %5, i64 16
  %38 = load ptr, ptr %37, align 8, !tbaa !26
  %39 = getelementptr inbounds nuw i8, ptr %5, i64 72
  %40 = load ptr, ptr %39, align 8, !tbaa !33
  %41 = load i64, ptr %40, align 8, !tbaa !34
  %42 = getelementptr inbounds nuw i8, ptr %6, i64 16
  %43 = load ptr, ptr %42, align 8, !tbaa !26
  %44 = getelementptr inbounds nuw i8, ptr %6, i64 72
  %45 = load ptr, ptr %44, align 8, !tbaa !33
  %46 = load i64, ptr %45, align 8, !tbaa !34
  %47 = getelementptr inbounds nuw i8, ptr %7, i64 16
  %48 = load ptr, ptr %47, align 8, !tbaa !26
  %49 = getelementptr inbounds nuw i8, ptr %7, i64 72
  %50 = load ptr, ptr %49, align 8, !tbaa !33
  %51 = load i64, ptr %50, align 8, !tbaa !34
  %52 = icmp sgt i32 %32, 0
  br i1 %52, label %.lr.ph.us.preheader, label %._crit_edge46

.lr.ph.us.preheader:                              ; preds = %.lr.ph45
  %wide.trip.count52 = zext nneg i32 %33 to i64
  %wide.trip.count = zext nneg i32 %32 to i64
  br label %.lr.ph.us

.lr.ph.us:                                        ; preds = %.lr.ph.us.preheader, %._crit_edge.us
  %indvars.iv49 = phi i64 [ 0, %.lr.ph.us.preheader ], [ %indvars.iv.next50, %._crit_edge.us ]
  %53 = mul i64 %41, %indvars.iv49
  %54 = getelementptr inbounds nuw i8, ptr %38, i64 %53
  %55 = mul i64 %46, %indvars.iv49
  %56 = getelementptr inbounds nuw i8, ptr %43, i64 %55
  %57 = mul i64 %51, %indvars.iv49
  %58 = getelementptr inbounds nuw i8, ptr %48, i64 %57
  br label %59

59:                                               ; preds = %.lr.ph.us, %59
  %indvars.iv = phi i64 [ 0, %.lr.ph.us ], [ %indvars.iv.next, %59 ]
  %60 = getelementptr inbounds nuw float, ptr %54, i64 %indvars.iv
  %61 = load float, ptr %60, align 4, !tbaa !36
  %62 = getelementptr inbounds nuw float, ptr %56, i64 %indvars.iv
  %63 = load float, ptr %62, align 4, !tbaa !36
  %64 = fmul float %63, %63
  %65 = call float @llvm.fmuladd.f32(float %61, float %61, float %64)
  %66 = call float @llvm.fmuladd.f32(float %35, float %65, float 1.000000e+00)
  %67 = call noundef float @sqrtf(float noundef %66) #19, !tbaa !25
  %68 = fdiv float 1.000000e+00, %67
  %69 = getelementptr inbounds nuw float, ptr %58, i64 %indvars.iv
  store float %68, ptr %69, align 4, !tbaa !36
  %indvars.iv.next = add nuw nsw i64 %indvars.iv, 1
  %exitcond.not = icmp eq i64 %indvars.iv.next, %wide.trip.count
  br i1 %exitcond.not, label %._crit_edge.us, label %59, !llvm.loop !86

._crit_edge.us:                                   ; preds = %59
  %indvars.iv.next50 = add nuw nsw i64 %indvars.iv49, 1
  %exitcond53.not = icmp eq i64 %indvars.iv.next50, %wide.trip.count52
  br i1 %exitcond53.not, label %._crit_edge46, label %.lr.ph.us, !llvm.loop !87

._crit_edge46:                                    ; preds = %._crit_edge.us, %.lr.ph45, %28
  call void @_ZN2cv3MatD1Ev(ptr noundef nonnull align 8 dereferenceable(96) %7) #19
  call void @llvm.lifetime.end.p0(i64 96, ptr nonnull %7) #19
  call void @_ZN2cv3MatD1Ev(ptr noundef nonnull align 8 dereferenceable(96) %6) #19
  call void @llvm.lifetime.end.p0(i64 96, ptr nonnull %6) #19
  call void @_ZN2cv3MatD1Ev(ptr noundef nonnull align 8 dereferenceable(96) %5) #19
  call void @llvm.lifetime.end.p0(i64 96, ptr nonnull %5) #19
  ret void

70:                                               ; preds = %21, %18, %_ZNK2cv11_InputArray6getMatEi.exit
  %71 = landingpad { ptr, i32 }
          cleanup
  br label %74

72:                                               ; preds = %27, %24, %_ZNK2cv11_InputArray6getMatEi.exit37
  %73 = landingpad { ptr, i32 }
          cleanup
  call void @llvm.lifetime.end.p0(i64 96, ptr nonnull %7) #19
  call void @_ZN2cv3MatD1Ev(ptr noundef nonnull align 8 dereferenceable(96) %6) #19
  br label %74

74:                                               ; preds = %72, %70
  %.pn.pn = phi { ptr, i32 } [ %73, %72 ], [ %71, %70 ]
  call void @llvm.lifetime.end.p0(i64 96, ptr nonnull %6) #19
  call void @_ZN2cv3MatD1Ev(ptr noundef nonnull align 8 dereferenceable(96) %5) #19
  call void @llvm.lifetime.end.p0(i64 96, ptr nonnull %5) #19
  resume { ptr, i32 } %.pn.pn
}